target datalayout = "e-m:e-p270:32:32-p271:32:32-p272:64:64-i64:64-i128:128-f80:128-n8:16:32:64-S128"
target triple = "x86_64-pc-linux-gnu"

%"class.std::__cxx11::basic_string" = type { %"struct.std::__cxx11::basic_string<char>::_Alloc_hider", i64, %union.anon }
%"struct.std::__cxx11::basic_string<char>::_Alloc_hider" = type { ptr }
%union.anon = type { i64, [8 x i8] }
%"class.std::__cxx11::basic_ostringstream" = type { %"class.std::basic_ostream.base", %"class.std::__cxx11::basic_stringbuf", %"class.std::basic_ios" }
%"class.std::basic_ostream.base" = type { ptr }
%"class.std::__cxx11::basic_stringbuf" = type { %"class.std::basic_streambuf", i32, %"class.std::__cxx11::basic_string" }
%"class.std::basic_streambuf" = type { ptr, ptr, ptr, ptr, ptr, ptr, ptr, %"class.std::locale" }
%"class.std::locale" = type { ptr }
%"class.std::basic_ios" = type { %"class.std::ios_base", ptr, i8, i8, ptr, ptr, ptr, ptr }
%"class.std::ios_base" = type { ptr, i64, i64, i32, i32, i32, ptr, %"struct.std::ios_base::_Words", [8 x %"struct.std::ios_base::_Words"], i32, ptr, %"class.std::locale" }
%"struct.std::ios_base::_Words" = type { ptr, i64 }
%class.Enumerator = type { %"class.std::map", %"struct.std::_Rb_tree_iterator", %"struct.std::_Rb_tree_iterator" }
%"class.std::map" = type { %"class.std::_Rb_tree" }
%"class.std::_Rb_tree" = type { %"struct.std::_Rb_tree<std::__cxx11::basic_string<char>, std::pair<const std::__cxx11::basic_string<char>, Enumerator<std::__cxx11::basic_string<char>>::EnumObject *>, std::_Select1st<std::pair<const std::__cxx11::basic_string<char>, Enumerator<std::__cxx11::basic_string<char>>::EnumObject *>>, std::less<std::__cxx11::basic_string<char>>>::_Rb_tree_impl" }
%"struct.std::_Rb_tree<std::__cxx11::basic_string<char>, std::pair<const std::__cxx11::basic_string<char>, Enumerator<std::__cxx11::basic_string<char>>::EnumObject *>, std::_Select1st<std::pair<const std::__cxx11::basic_string<char>, Enumerator<std::__cxx11::basic_string<char>>::EnumObject *>>, std::less<std::__cxx11::basic_string<char>>>::_Rb_tree_impl" = type { %"struct.std::_Rb_tree_key_compare", %"struct.std::_Rb_tree_header" }
%"struct.std::_Rb_tree_key_compare" = type { %"struct.std::less" }
%"struct.std::less" = type { i8 }
%"struct.std::_Rb_tree_header" = type { %"struct.std::_Rb_tree_node_base", i64 }
%"struct.std::_Rb_tree_node_base" = type { i32, ptr, ptr, ptr }
%"struct.std::_Rb_tree_iterator" = type { ptr }
%"class.Enumerator<std::__cxx11::basic_string<char>>::EnumObject" = type <{ i32, i32, i8, i8, i8, i8 }>

@.str.23 = private unnamed_addr constant [9 x i8] c"bitfield\00", align 1

; Function Attrs: mustprogress nounwind uwtable
define linkonce_odr dso_local void @_ZN10EnumeratorINSt7__cxx1112basic_stringIcSt11char_traitsIcESaIcEEEE10EnumObjectC2Eibb(ptr noundef nonnull align 4 dereferenceable(11) %0, i32 noundef %1, i1 noundef zeroext %2, i1 noundef zeroext %3) unnamed_addr #4 comdat align 2 {
  %5 = alloca ptr, align 8
  %6 = alloca i32, align 4
  %7 = alloca i8, align 1
  %8 = alloca i8, align 1
  store ptr %0, ptr %5, align 8
  store i32 %1, ptr %6, align 4
  %9 = zext i1 %2 to i8
  store i8 %9, ptr %7, align 1
  %10 = zext i1 %3 to i8
  store i8 %10, ptr %8, align 1
  %11 = load ptr, ptr %5, align 8
  %12 = getelementptr inbounds %"class.Enumerator<std::__cxx11::basic_string<char>>::EnumObject", ptr %11, i32 0, i32 0
  %13 = load i32, ptr %6, align 4
  store i32 %13, ptr %12, align 4
  %14 = getelementptr inbounds %"class.Enumerator<std::__cxx11::basic_string<char>>::EnumObject", ptr %11, i32 0, i32 1
  store i32 0, ptr %14, align 4
  %15 = getelementptr inbounds %"class.Enumerator<std::__cxx11::basic_string<char>>::EnumObject", ptr %11, i32 0, i32 2
  %16 = load i8, ptr %7, align 1
  %17 = trunc i8 %16 to i1
  %18 = zext i1 %17 to i8
  store i8 %18, ptr %15, align 4
  %19 = getelementptr inbounds %"class.Enumerator<std::__cxx11::basic_string<char>>::EnumObject", ptr %11, i32 0, i32 3
  %20 = load i8, ptr %8, align 1
  %21 = trunc i8 %20 to i1
  %22 = zext i1 %21 to i8
  store i8 %22, ptr %19, align 1
  %23 = getelementptr inbounds %"class.Enumerator<std::__cxx11::basic_string<char>>::EnumObject", ptr %11, i32 0, i32 4
  store i8 0, ptr %23, align 2
  ret void
}

; Function Attrs: mustprogress uwtable
define linkonce_odr dso_local void @_ZN10EnumeratorINSt7__cxx1112basic_stringIcSt11char_traitsIcESaIcEEEE13add_bool_elemES5_i(ptr noundef nonnull align 8 dereferenceable(64) %0, ptr noundef %1, i32 noundef %2) #5 comdat align 2 personality ptr @__gxx_personality_v0 {
  %4 = alloca ptr, align 8
  %5 = alloca ptr, align 8
  %6 = alloca i32, align 4
  %7 = alloca i32, align 4
  %8 = alloca i8, align 1
  %9 = alloca ptr, align 8
  %10 = alloca i32, align 4
  store ptr %0, ptr %4, align 8
  store ptr %1, ptr %5, align 8
  store i32 %2, ptr %6, align 4
  %11 = load ptr, ptr %4, align 8
  store i32 0, ptr %7, align 4
  store i8 0, ptr %8, align 1
  %12 = load i32, ptr %6, align 4
  %13 = icmp eq i32 %12, 0
  br i1 %13, label %14, label %15

14:                                               ; preds = %3
  store i32 1, ptr %7, align 4
  store i8 0, ptr %8, align 1
  br label %21

15:                                               ; preds = %3
  %16 = load i32, ptr %6, align 4
  %17 = icmp eq i32 %16, 100
  br i1 %17, label %18, label %19

18:                                               ; preds = %15
  store i32 1, ptr %7, align 4
  store i8 1, ptr %8, align 1
  br label %20

19:                                               ; preds = %15
  store i32 2, ptr %7, align 4
  br label %20

20:                                               ; preds = %19, %18
  br label %21

21:                                               ; preds = %20, %14
  %22 = call noalias noundef nonnull ptr @_Znwm(i64 noundef 12) #15
  %23 = load i32, ptr %7, align 4
  %24 = load i8, ptr %8, align 1
  %25 = trunc i8 %24 to i1
  invoke void @_ZN10EnumeratorINSt7__cxx1112basic_stringIcSt11char_traitsIcESaIcEEEE10EnumObjectC2Eibb(ptr noundef nonnull align 4 dereferenceable(11) %22, i32 noundef %23, i1 noundef zeroext true, i1 noundef zeroext %25)
          to label %26 unwind label %29

26:                                               ; preds = %21
  %27 = getelementptr inbounds %class.Enumerator, ptr %11, i32 0, i32 0
  %28 = call noundef nonnull align 8 dereferenceable(8) ptr @_ZNSt3mapINSt7__cxx1112basic_stringIcSt11char_traitsIcESaIcEEEPN10EnumeratorIS5_E10EnumObjectESt4lessIS5_ESaISt4pairIKS5_S9_EEEixERSD_(ptr noundef nonnull align 8 dereferenceable(48) %27, ptr noundef nonnull align 8 dereferenceable(32) %1)
  store ptr %22, ptr %28, align 8
  ret void

29:                                               ; preds = %21
  %30 = landingpad { ptr, i32 }
          cleanup
  %31 = extractvalue { ptr, i32 } %30, 0
  store ptr %31, ptr %9, align 8
  %32 = extractvalue { ptr, i32 } %30, 1
  store i32 %32, ptr %10, align 4
  call void @_ZdlPv(ptr noundef %22) #16
  br label %33

33:                                               ; preds = %29
  %34 = load ptr, ptr %9, align 8
  %35 = load i32, ptr %10, align 4
  %36 = insertvalue { ptr, i32 } poison, ptr %34, 0
  %37 = insertvalue { ptr, i32 } %36, i32 %35, 1
  resume { ptr, i32 } %37
}

; Function Attrs: mustprogress uwtable
define dso_local void @_ZN4Type27init_is_bitfield_enumeratorER10EnumeratorINSt7__cxx1112basic_stringIcSt11char_traitsIcESaIcEEEEi(ptr noundef nonnull align 8 dereferenceable(64) %0, i32 noundef %1) #5 align 2 personality ptr @__gxx_personality_v0 {
  %3 = alloca ptr, align 8
  %4 = alloca i32, align 4
  %5 = alloca i32, align 4
  %6 = alloca i32, align 4
  %7 = alloca %"class.std::__cxx11::basic_ostringstream", align 8
  %8 = alloca ptr, align 8
  %9 = alloca i32, align 4
  %10 = alloca %"class.std::__cxx11::basic_string", align 8
  %11 = alloca %"class.std::__cxx11::basic_string", align 8
  store ptr %0, ptr %3, align 8
  store i32 %1, ptr %4, align 4
  %12 = call noundef i32 @_ZN9CGOptions17max_struct_fieldsEv()
  store i32 %12, ptr %5, align 4
  store i32 0, ptr %6, align 4
  br label %13

13:                                               ; preds = %47, %2
  %14 = load i32, ptr %6, align 4
  %15 = load i32, ptr %5, align 4
  %16 = icmp slt i32 %14, %15
  br i1 %16, label %17, label %51

17:                                               ; preds = %13
  call void @_ZNSt7__cxx1119basic_ostringstreamIcSt11char_traitsIcESaIcEEC1Ev(ptr noundef nonnull align 8 dereferenceable(112) %7)
  %18 = invoke noundef nonnull align 8 dereferenceable(8) ptr @_ZStlsISt11char_traitsIcEERSt13basic_ostreamIcT_ES5_PKc(ptr noundef nonnull align 8 dereferenceable(8) %7, ptr noundef @.str.23)
          to label %19 unwind label %30

19:                                               ; preds = %17
  %20 = load i32, ptr %6, align 4
  %21 = invoke noundef nonnull align 8 dereferenceable(8) ptr @_ZNSolsEi(ptr noundef nonnull align 8 dereferenceable(8) %18, i32 noundef %20)
          to label %22 unwind label %30

22:                                               ; preds = %19
  %23 = invoke noundef zeroext i1 @_ZN9CGOptions9bitfieldsEv()
          to label %24 unwind label %30

24:                                               ; preds = %22
  br i1 %23, label %25, label %38

25:                                               ; preds = %24
  %26 = load ptr, ptr %3, align 8
  invoke void @_ZNKSt7__cxx1119basic_ostringstreamIcSt11char_traitsIcESaIcEE3strEv(ptr dead_on_unwind writable sret(%"class.std::__cxx11::basic_string") align 8 %10, ptr noundef nonnull align 8 dereferenceable(112) %7)
          to label %27 unwind label %30

27:                                               ; preds = %25
  %28 = load i32, ptr %4, align 4
  invoke void @_ZN10EnumeratorINSt7__cxx1112basic_stringIcSt11char_traitsIcESaIcEEEE13add_bool_elemES5_i(ptr noundef nonnull align 8 dereferenceable(64) %26, ptr noundef %10, i32 noundef %28)
          to label %29 unwind label %34

29:                                               ; preds = %27
  call void @_ZNSt7__cxx1112basic_stringIcSt11char_traitsIcESaIcEED1Ev(ptr noundef nonnull align 8 dereferenceable(32) %10) #3
  br label %46

30:                                               ; preds = %38, %25, %22, %19, %17
  %31 = landingpad { ptr, i32 }
          cleanup
  %32 = extractvalue { ptr, i32 } %31, 0
  store ptr %32, ptr %8, align 8
  %33 = extractvalue { ptr, i32 } %31, 1
  store i32 %33, ptr %9, align 4
  br label %50

34:                                               ; preds = %27
  %35 = landingpad { ptr, i32 }
          cleanup
  %36 = extractvalue { ptr, i32 } %35, 0
  store ptr %36, ptr %8, align 8
  %37 = extractvalue { ptr, i32 } %35, 1
  store i32 %37, ptr %9, align 4
  call void @_ZNSt7__cxx1112basic_stringIcSt11char_traitsIcESaIcEED1Ev(ptr noundef nonnull align 8 dereferenceable(32) %10) #3
  br label %50

38:                                               ; preds = %24
  %39 = load ptr, ptr %3, align 8
  invoke void @_ZNKSt7__cxx1119basic_ostringstreamIcSt11char_traitsIcESaIcEE3strEv(ptr dead_on_unwind writable sret(%"class.std::__cxx11::basic_string") align 8 %11, ptr noundef nonnull align 8 dereferenceable(112) %7)
          to label %40 unwind label %30

40:                                               ; preds = %38
  invoke void @_ZN10EnumeratorINSt7__cxx1112basic_stringIcSt11char_traitsIcESaIcEEEE13add_bool_elemES5_i(ptr noundef nonnull align 8 dereferenceable(64) %39, ptr noundef %11, i32 noundef 0)
          to label %41 unwind label %42

41:                                               ; preds = %40
  call void @_ZNSt7__cxx1112basic_stringIcSt11char_traitsIcESaIcEED1Ev(ptr noundef nonnull align 8 dereferenceable(32) %11) #3
  br label %46

42:                                               ; preds = %40
  %43 = landingpad { ptr, i32 }
          cleanup
  %44 = extractvalue { ptr, i32 } %43, 0
  store ptr %44, ptr %8, align 8
  %45 = extractvalue { ptr, i32 } %43, 1
  store i32 %45, ptr %9, align 4
  call void @_ZNSt7__cxx1112basic_stringIcSt11char_traitsIcESaIcEED1Ev(ptr noundef nonnull align 8 dereferenceable(32) %11) #3
  br label %50

46:                                               ; preds = %41, %29
  call void @_ZNSt7__cxx1119basic_ostringstreamIcSt11char_traitsIcESaIcEED1Ev(ptr noundef nonnull align 8 dereferenceable(112) %7) #3
  br label %47

47:                                               ; preds = %46
  %48 = load i32, ptr %6, align 4
  %49 = add nsw i32 %48, 1
  store i32 %49, ptr %6, align 4
  br label %13, !llvm.loop !23

50:                                               ; preds = %42, %34, %30
  call void @_ZNSt7__cxx1119basic_ostringstreamIcSt11char_traitsIcESaIcEED1Ev(ptr noundef nonnull align 8 dereferenceable(112) %7) #3
  br label %52

51:                                               ; preds = %13
  ret void

52:                                               ; preds = %50
  %53 = load ptr, ptr %8, align 8
  %54 = load i32, ptr %9, align 4
  %55 = insertvalue { ptr, i32 } poison, ptr %53, 0
  %56 = insertvalue { ptr, i32 } %55, i32 %54, 1
  resume { ptr, i32 } %56
}