; Function Attrs: mustprogress uwtable
define dso_local void @_ZN4Type27init_is_bitfield_enumeratorER10EnumeratorINSt7__cxx1112basic_stringIcSt11char_traitsIcESaIcEEEEi(ptr noundef nonnull align 8 dereferenceable(64) %0, i32 noundef %1) local_unnamed_addr #4 align 2 personality ptr @__gxx_personality_v0 {
  %3 = alloca %"class.std::__cxx11::basic_ostringstream", align 8
  %4 = alloca %"class.std::__cxx11::basic_string", align 8
  %5 = alloca %"class.std::__cxx11::basic_string", align 8
  %6 = tail call noundef i32 @_ZN9CGOptions17max_struct_fieldsEv()
  %7 = icmp sgt i32 %6, 0
  br i1 %7, label %.lr.ph, label %._crit_edge

.lr.ph:                                           ; preds = %2, %41
  %.0917 = phi i32 [ %42, %41 ], [ 0, %2 ]
  call void @_ZNSt7__cxx1119basic_ostringstreamIcSt11char_traitsIcESaIcEEC1Ev(ptr noundef nonnull align 8 dereferenceable(112) %3)
  %8 = invoke noundef nonnull align 8 dereferenceable(8) ptr @_ZStlsISt11char_traitsIcEERSt13basic_ostreamIcT_ES5_PKc(ptr noundef nonnull align 8 dereferenceable(8) %3, ptr noundef nonnull @.str.23)
          to label %9 unwind label %26

9:                                                ; preds = %.lr.ph
  %10 = invoke noundef nonnull align 8 dereferenceable(8) ptr @_ZNSolsEi(ptr noundef nonnull align 8 dereferenceable(8) %8, i32 noundef %.0917)
          to label %11 unwind label %26

11:                                               ; preds = %9
  %12 = invoke noundef zeroext i1 @_ZN9CGOptions9bitfieldsEv()
          to label %13 unwind label %26

13:                                               ; preds = %11
  br i1 %12, label %14, label %30

14:                                               ; preds = %13
  invoke void @_ZNKSt7__cxx1119basic_ostringstreamIcSt11char_traitsIcESaIcEE3strEv(ptr dead_on_unwind nonnull writable sret(%"class.std::__cxx11::basic_string") align 8 %4, ptr noundef nonnull align 8 dereferenceable(112) %3)
          to label %15 unwind label %26

15:                                               ; preds = %14
  switch i32 %1, label %17 [
    i32 0, label %18
    i32 100, label %16
  ]

16:                                               ; preds = %15
  br label %18

17:                                               ; preds = %15
  br label %18

18:                                               ; preds = %17, %16, %15
  %.04.i = phi i32 [ 1, %16 ], [ 2, %17 ], [ 1, %15 ]
  %.0.i = phi i8 [ 1, %16 ], [ 0, %17 ], [ 0, %15 ]
  %19 = invoke noalias noundef nonnull dereferenceable(12) ptr @_Znwm(i64 noundef 12) #22
          to label %.noexc unwind label %28

.noexc:                                           ; preds = %18
  store i32 %.04.i, ptr %19, align 4
  %20 = getelementptr inbounds i8, ptr %19, i64 4
  store i32 0, ptr %20, align 4
  %21 = getelementptr inbounds i8, ptr %19, i64 8
  store i8 1, ptr %21, align 4
  %22 = getelementptr inbounds i8, ptr %19, i64 9
  store i8 %.0.i, ptr %22, align 1
  %23 = getelementptr inbounds i8, ptr %19, i64 10
  store i8 0, ptr %23, align 2
  %24 = invoke noundef nonnull align 8 dereferenceable(8) ptr @_ZNSt3mapINSt7__cxx1112basic_stringIcSt11char_traitsIcESaIcEEEPN10EnumeratorIS5_E10EnumObjectESt4lessIS5_ESaISt4pairIKS5_S9_EEEixERSD_(ptr noundef nonnull align 8 dereferenceable(48) %0, ptr noundef nonnull align 8 dereferenceable(32) %4)
          to label %25 unwind label %28

25:                                               ; preds = %.noexc
  store ptr %19, ptr %24, align 8
  br label %41

26:                                               ; preds = %30, %14, %11, %9, %.lr.ph
  %27 = landingpad { ptr, i32 }
          cleanup
  br label %43

28:                                               ; preds = %.noexc, %18
  %29 = landingpad { ptr, i32 }
          cleanup
  call void @_ZNSt7__cxx1112basic_stringIcSt11char_traitsIcESaIcEED1Ev(ptr noundef nonnull align 8 dereferenceable(32) %4) #23
  br label %43

30:                                               ; preds = %13
  invoke void @_ZNKSt7__cxx1119basic_ostringstreamIcSt11char_traitsIcESaIcEE3strEv(ptr dead_on_unwind nonnull writable sret(%"class.std::__cxx11::basic_string") align 8 %5, ptr noundef nonnull align 8 dereferenceable(112) %3)
          to label %31 unwind label %26

31:                                               ; preds = %30
  %32 = invoke noalias noundef nonnull dereferenceable(12) ptr @_Znwm(i64 noundef 12) #22
          to label %.noexc14 unwind label %39

.noexc14:                                         ; preds = %31
  store i32 1, ptr %32, align 4
  %33 = getelementptr inbounds i8, ptr %32, i64 4
  store i32 0, ptr %33, align 4
  %34 = getelementptr inbounds i8, ptr %32, i64 8
  store i8 1, ptr %34, align 4
  %35 = getelementptr inbounds i8, ptr %32, i64 9
  store i8 0, ptr %35, align 1
  %36 = getelementptr inbounds i8, ptr %32, i64 10
  store i8 0, ptr %36, align 2
  %37 = invoke noundef nonnull align 8 dereferenceable(8) ptr @_ZNSt3mapINSt7__cxx1112basic_stringIcSt11char_traitsIcESaIcEEEPN10EnumeratorIS5_E10EnumObjectESt4lessIS5_ESaISt4pairIKS5_S9_EEEixERSD_(ptr noundef nonnull align 8 dereferenceable(48) %0, ptr noundef nonnull align 8 dereferenceable(32) %5)
          to label %38 unwind label %39

38:                                               ; preds = %.noexc14
  store ptr %32, ptr %37, align 8
  br label %41

39:                                               ; preds = %.noexc14, %31
  %40 = landingpad { ptr, i32 }
          cleanup
  call void @_ZNSt7__cxx1112basic_stringIcSt11char_traitsIcESaIcEED1Ev(ptr noundef nonnull align 8 dereferenceable(32) %5) #23
  br label %43

41:                                               ; preds = %38, %25
  %.sink = phi ptr [ %5, %38 ], [ %4, %25 ]
  call void @_ZNSt7__cxx1112basic_stringIcSt11char_traitsIcESaIcEED1Ev(ptr noundef nonnull align 8 dereferenceable(32) %.sink) #23
  call void @_ZNSt7__cxx1119basic_ostringstreamIcSt11char_traitsIcESaIcEED1Ev(ptr noundef nonnull align 8 dereferenceable(112) %3) #23
  %42 = add nuw nsw i32 %.0917, 1
  %exitcond.not = icmp eq i32 %42, %6
  br i1 %exitcond.not, label %._crit_edge, label %.lr.ph, !llvm.loop !24

43:                                               ; preds = %39, %28, %26
  %.pn = phi { ptr, i32 } [ %29, %28 ], [ %27, %26 ], [ %40, %39 ]
  call void @_ZNSt7__cxx1119basic_ostringstreamIcSt11char_traitsIcESaIcEED1Ev(ptr noundef nonnull align 8 dereferenceable(112) %3) #23
  resume { ptr, i32 } %.pn

._crit_edge:                                      ; preds = %41, %2
  ret void
}